target datalayout = "e-m:e-p270:32:32-p271:32:32-p272:64:64-i64:64-i128:128-f80:128-n8:16:32:64-S128"
target triple = "x86_64-pc-linux-gnu"

%struct.slurm_conf_t = type { i64, ptr, i16, ptr, ptr, ptr, ptr, ptr, i16, ptr, ptr, ptr, ptr, ptr, ptr, ptr, i16, ptr, ptr, ptr, ptr, i16, ptr, ptr, ptr, i64, ptr, ptr, ptr, ptr, i16, ptr, ptr, i16, i32, ptr, i32, ptr, i32, i32, ptr, ptr, i64, i64, ptr, i16, i16, ptr, i32, i32, ptr, i32, ptr, i32, i16, i16, i16, ptr, i16, i16, ptr, ptr, i32, i16, i16, ptr, i32, i16, ptr, ptr, ptr, ptr, i16, ptr, ptr, ptr, ptr, i32, ptr, ptr, ptr, ptr, i16, i16, ptr, i32, i32, i32, i16, i16, ptr, ptr, i16, ptr, ptr, i32, i32, i32, i32, i32, i64, i32, i32, i16, ptr, ptr, i32, ptr, ptr, ptr, i16, i32, ptr, ptr, i16, ptr, ptr, i32, i16, ptr, ptr, ptr, ptr, i32, i32, i16, i16, i32, ptr, i16, ptr, i32, i32, i32, i32, i32, i32, ptr, i16, ptr, ptr, i32, i16, ptr, i32, i16, i16, ptr, ptr, ptr, i16, ptr, ptr, ptr, ptr, i16, i16, ptr, i16, ptr, i16, ptr, i16, ptr, i16, ptr, ptr, ptr, ptr, i16, ptr, ptr, ptr, i32, ptr, i32, ptr, ptr, i16, ptr, ptr, i32, i16, ptr, ptr, i16, i16, ptr, i16, ptr, ptr, ptr, i32, ptr, i16, i16, ptr, ptr, ptr, ptr, ptr, ptr, ptr, ptr, i16, i32, i16, ptr, ptr, ptr, ptr, i32, ptr, ptr, ptr, i16, ptr, ptr, ptr, i16, ptr, i16, ptr, i16, i16, ptr }
%union.pthread_mutex_t = type { %struct.__pthread_mutex_s }
%struct.__pthread_mutex_s = type { i32, i32, i32, i32, i32, i16, i16, %struct.__pthread_internal_list }
%struct.__pthread_internal_list = type { ptr, ptr }
%struct.slurmdbd_conn_t = type { ptr, ptr, %union.pthread_mutex_t, ptr, ptr }
%struct.persist_conn_t = type { ptr, i32, i32, i8, ptr, ptr, ptr, i64, i16, i32, i16, i8, i32, i32, ptr, i16, ptr, i64, i32, ptr, %struct.slurm_trigger_callbacks_t, i16 }
%struct.slurm_trigger_callbacks_t = type { ptr, ptr, ptr, ptr, ptr }
%struct.persist_msg_t = type { ptr, ptr, i16 }
%struct.node_record = type { ptr, ptr, i16, i64, i64, ptr, ptr, ptr, i16, ptr, i16, i16, i32, i32, i64, ptr, i16, i16, ptr, ptr, ptr, ptr, ptr, i64, i64, ptr, ptr, ptr, ptr, i32, ptr, ptr, i64, i64, i32, ptr, i64, ptr, i32, i16, ptr, ptr, i32, ptr, i32, i8, ptr, i32, i16, i16, ptr, i16, i64, i16, i64, ptr, i64, i32, i16, i64, i16, ptr, i16, i64, ptr, i64, i16, i32, i16, ptr, ptr, ptr, i16, i32, i16, i16, i32, ptr, i16, i32 }
%struct.dbd_node_state_msg = type { i64, ptr, ptr, ptr, ptr, i16, ptr, i32, i32, ptr }

@slurm_conf = external global %struct.slurm_conf_t, align 8
@.str.86 = private unnamed_addr constant [14 x i8] c"CONN:%d %s %u\00", align 1
@.str.114 = private unnamed_addr constant [40 x i8] c"DBD_NODE_STATE message from invalid uid\00", align 1
@.str.115 = private unnamed_addr constant [46 x i8] c"DBD_NODE_STATE_UP: NODE:%s REASON:%s TIME:%ld\00", align 1
@.str.116 = private unnamed_addr constant [64 x i8] c"DBD_NODE_STATE_DOWN: NODE:%s STATE:%s REASON:%s UID:%u TIME:%ld\00", align 1
@.str.117 = private unnamed_addr constant [31 x i8] c"DBD_NODE_STATE_UPDATE: NODE:%s\00", align 1
@.str.118 = private unnamed_addr constant [45 x i8] c"DBD_NODE_STATE message has invalid new_state\00", align 1

; Function Attrs: nounwind uwtable
define internal zeroext i1 @_validate_slurm_user(ptr noundef %0) #0 {
  %2 = alloca i1, align 1
  %3 = alloca ptr, align 8
  %4 = alloca i32, align 4
  %5 = alloca i32, align 4
  store ptr %0, ptr %3, align 8
  call void @llvm.lifetime.start.p0(i64 4, ptr %4) #8
  %6 = load ptr, ptr %3, align 8
  %7 = getelementptr inbounds nuw %struct.slurmdbd_conn_t, ptr %6, i32 0, i32 0
  %8 = load ptr, ptr %7, align 8
  %9 = getelementptr inbounds nuw %struct.persist_conn_t, ptr %8, i32 0, i32 1
  %10 = load i32, ptr %9, align 8
  store i32 %10, ptr %4, align 4
  %11 = load i32, ptr %4, align 4
  %12 = icmp eq i32 %11, 0
  br i1 %12, label %17, label %13

13:                                               ; preds = %1
  %14 = load i32, ptr %4, align 4
  %15 = load i32, ptr getelementptr inbounds nuw (%struct.slurm_conf_t, ptr @slurm_conf, i32 0, i32 173), align 8
  %16 = icmp eq i32 %14, %15
  br i1 %16, label %17, label %18

17:                                               ; preds = %13, %1
  store i1 true, ptr %2, align 1
  store i32 1, ptr %5, align 4
  br label %19

18:                                               ; preds = %13
  store i1 false, ptr %2, align 1
  store i32 1, ptr %5, align 4
  br label %19

19:                                               ; preds = %18, %17
  call void @llvm.lifetime.end.p0(i64 4, ptr %4) #8
  %20 = load i1, ptr %2, align 1
  ret i1 %20
}

; Function Attrs: nounwind uwtable
define internal i32 @_node_state(ptr noundef %0, ptr noundef %1, ptr noundef %2) #0 {
  %4 = alloca ptr, align 8
  %5 = alloca ptr, align 8
  %6 = alloca ptr, align 8
  %7 = alloca ptr, align 8
  %8 = alloca %struct.node_record, align 8
  %9 = alloca i32, align 4
  %10 = alloca ptr, align 8
  store ptr %0, ptr %4, align 8
  store ptr %1, ptr %5, align 8
  store ptr %2, ptr %6, align 8
  call void @llvm.lifetime.start.p0(i64 8, ptr %7) #8
  %11 = load ptr, ptr %5, align 8
  %12 = getelementptr inbounds nuw %struct.persist_msg_t, ptr %11, i32 0, i32 1
  %13 = load ptr, ptr %12, align 8
  store ptr %13, ptr %7, align 8
  call void @llvm.lifetime.start.p0(i64 536, ptr %8) #8
  call void @llvm.lifetime.start.p0(i64 4, ptr %9) #8
  store i32 0, ptr %9, align 4
  call void @llvm.lifetime.start.p0(i64 8, ptr %10) #8
  store ptr null, ptr %10, align 8
  %14 = load ptr, ptr %4, align 8
  %15 = call zeroext i1 @_validate_slurm_user(ptr noundef %14)
  br i1 %15, label %29, label %16

16:                                               ; preds = %3
  store ptr @.str.114, ptr %10, align 8
  %17 = load ptr, ptr %4, align 8
  %18 = getelementptr inbounds nuw %struct.slurmdbd_conn_t, ptr %17, i32 0, i32 0
  %19 = load ptr, ptr %18, align 8
  %20 = getelementptr inbounds nuw %struct.persist_conn_t, ptr %19, i32 0, i32 9
  %21 = load i32, ptr %20, align 4
  %22 = load ptr, ptr %10, align 8
  %23 = load ptr, ptr %4, align 8
  %24 = getelementptr inbounds nuw %struct.slurmdbd_conn_t, ptr %23, i32 0, i32 0
  %25 = load ptr, ptr %24, align 8
  %26 = getelementptr inbounds nuw %struct.persist_conn_t, ptr %25, i32 0, i32 1
  %27 = load i32, ptr %26, align 8
  %28 = call i32 (ptr, ...) @error(ptr noundef @.str.86, i32 noundef %21, ptr noundef %22, i32 noundef %27)
  store i32 2002, ptr %9, align 4
  br label %186

29:                                               ; preds = %3
  call void @llvm.memset.p0.i64(ptr align 8 %8, i8 0, i64 536, i1 false)
  %30 = load ptr, ptr %7, align 8
  %31 = getelementptr inbounds nuw %struct.dbd_node_state_msg, ptr %30, i32 0, i32 1
  %32 = load ptr, ptr %31, align 8
  %33 = getelementptr inbounds nuw %struct.node_record, ptr %8, i32 0, i32 19
  store ptr %32, ptr %33, align 8
  %34 = load ptr, ptr %7, align 8
  %35 = getelementptr inbounds nuw %struct.dbd_node_state_msg, ptr %34, i32 0, i32 3
  %36 = load ptr, ptr %35, align 8
  %37 = getelementptr inbounds nuw %struct.node_record, ptr %8, i32 0, i32 30
  store ptr %36, ptr %37, align 8
  %38 = load ptr, ptr %7, align 8
  %39 = getelementptr inbounds nuw %struct.dbd_node_state_msg, ptr %38, i32 0, i32 4
  %40 = load ptr, ptr %39, align 8
  %41 = getelementptr inbounds nuw %struct.node_record, ptr %8, i32 0, i32 31
  store ptr %40, ptr %41, align 8
  %42 = load ptr, ptr %7, align 8
  %43 = getelementptr inbounds nuw %struct.dbd_node_state_msg, ptr %42, i32 0, i32 2
  %44 = load ptr, ptr %43, align 8
  %45 = getelementptr inbounds nuw %struct.node_record, ptr %8, i32 0, i32 37
  store ptr %44, ptr %45, align 8
  %46 = load ptr, ptr %7, align 8
  %47 = getelementptr inbounds nuw %struct.dbd_node_state_msg, ptr %46, i32 0, i32 9
  %48 = load ptr, ptr %47, align 8
  %49 = getelementptr inbounds nuw %struct.node_record, ptr %8, i32 0, i32 71
  store ptr %48, ptr %49, align 8
  %50 = load ptr, ptr %7, align 8
  %51 = getelementptr inbounds nuw %struct.dbd_node_state_msg, ptr %50, i32 0, i32 8
  %52 = load i32, ptr %51, align 4
  %53 = getelementptr inbounds nuw %struct.node_record, ptr %8, i32 0, i32 44
  store i32 %52, ptr %53, align 8
  %54 = load ptr, ptr %7, align 8
  %55 = getelementptr inbounds nuw %struct.dbd_node_state_msg, ptr %54, i32 0, i32 6
  %56 = load ptr, ptr %55, align 8
  %57 = getelementptr inbounds nuw %struct.node_record, ptr %8, i32 0, i32 55
  store ptr %56, ptr %57, align 8
  %58 = load ptr, ptr %7, align 8
  %59 = getelementptr inbounds nuw %struct.dbd_node_state_msg, ptr %58, i32 0, i32 0
  %60 = load i64, ptr %59, align 8
  %61 = getelementptr inbounds nuw %struct.node_record, ptr %8, i32 0, i32 56
  store i64 %60, ptr %61, align 8
  %62 = load ptr, ptr %7, align 8
  %63 = getelementptr inbounds nuw %struct.dbd_node_state_msg, ptr %62, i32 0, i32 7
  %64 = load i32, ptr %63, align 8
  %65 = getelementptr inbounds nuw %struct.node_record, ptr %8, i32 0, i32 57
  store i32 %64, ptr %65, align 8
  %66 = getelementptr inbounds nuw %struct.node_record, ptr %8, i32 0, i32 71
  %67 = load ptr, ptr %66, align 8
  %68 = icmp ne ptr %67, null
  br i1 %68, label %78, label %69

69:                                               ; preds = %29
  %70 = load ptr, ptr %7, align 8
  %71 = getelementptr inbounds nuw %struct.dbd_node_state_msg, ptr %70, i32 0, i32 5
  %72 = load i16, ptr %71, align 8
  %73 = zext i16 %72 to i32
  %74 = icmp ne i32 %73, 3
  br i1 %74, label %75, label %78

75:                                               ; preds = %69
  %76 = load ptr, ptr %7, align 8
  %77 = getelementptr inbounds nuw %struct.dbd_node_state_msg, ptr %76, i32 0, i32 5
  store i16 2, ptr %77, align 8
  br label %78

78:                                               ; preds = %75, %69, %29
  %79 = load ptr, ptr %7, align 8
  %80 = getelementptr inbounds nuw %struct.dbd_node_state_msg, ptr %79, i32 0, i32 5
  %81 = load i16, ptr %80, align 8
  %82 = zext i16 %81 to i32
  switch i32 %82, label %172 [
    i32 2, label %83
    i32 1, label %116
    i32 3, label %154
  ]

83:                                               ; preds = %78
  br label %84

84:                                               ; preds = %83
  br label %85

85:                                               ; preds = %84
  %86 = call i32 @get_log_level()
  %87 = icmp sge i32 %86, 6
  br i1 %87, label %88, label %98

88:                                               ; preds = %85
  %89 = load ptr, ptr %7, align 8
  %90 = getelementptr inbounds nuw %struct.dbd_node_state_msg, ptr %89, i32 0, i32 2
  %91 = load ptr, ptr %90, align 8
  %92 = load ptr, ptr %7, align 8
  %93 = getelementptr inbounds nuw %struct.dbd_node_state_msg, ptr %92, i32 0, i32 6
  %94 = load ptr, ptr %93, align 8
  %95 = load ptr, ptr %7, align 8
  %96 = getelementptr inbounds nuw %struct.dbd_node_state_msg, ptr %95, i32 0, i32 0
  %97 = load i64, ptr %96, align 8
  call void (i32, ptr, ...) @log_var(i32 noundef 6, ptr noundef @.str.115, ptr noundef %91, ptr noundef %94, i64 noundef %97)
  br label %98

98:                                               ; preds = %88, %85
  br label %99

99:                                               ; preds = %98
  br label %100

100:                                              ; preds = %99
  br label %101

101:                                              ; preds = %100
  br label %102

102:                                              ; preds = %101
  %103 = load ptr, ptr %7, align 8
  %104 = getelementptr inbounds nuw %struct.dbd_node_state_msg, ptr %103, i32 0, i32 6
  %105 = load ptr, ptr %104, align 8
  %106 = call ptr @xstrdup(ptr noundef %105)
  %107 = getelementptr inbounds nuw %struct.node_record, ptr %8, i32 0, i32 55
  store ptr %106, ptr %107, align 8
  %108 = load ptr, ptr %4, align 8
  %109 = getelementptr inbounds nuw %struct.slurmdbd_conn_t, ptr %108, i32 0, i32 3
  %110 = load ptr, ptr %109, align 8
  %111 = load ptr, ptr %7, align 8
  %112 = getelementptr inbounds nuw %struct.dbd_node_state_msg, ptr %111, i32 0, i32 0
  %113 = load i64, ptr %112, align 8
  %114 = call i32 @clusteracct_storage_g_node_up(ptr noundef %110, ptr noundef %8, i64 noundef %113)
  store i32 %114, ptr %9, align 4
  %115 = getelementptr inbounds nuw %struct.node_record, ptr %8, i32 0, i32 55
  call void @slurm_xfree(ptr noundef %115)
  br label %185

116:                                              ; preds = %78
  br label %117

117:                                              ; preds = %116
  br label %118

118:                                              ; preds = %117
  %119 = call i32 @get_log_level()
  %120 = icmp sge i32 %119, 6
  br i1 %120, label %121, label %137

121:                                              ; preds = %118
  %122 = load ptr, ptr %7, align 8
  %123 = getelementptr inbounds nuw %struct.dbd_node_state_msg, ptr %122, i32 0, i32 2
  %124 = load ptr, ptr %123, align 8
  %125 = load ptr, ptr %7, align 8
  %126 = getelementptr inbounds nuw %struct.dbd_node_state_msg, ptr %125, i32 0, i32 8
  %127 = load i32, ptr %126, align 4
  %128 = call ptr @node_state_string(i32 noundef %127)
  %129 = load ptr, ptr %7, align 8
  %130 = getelementptr inbounds nuw %struct.dbd_node_state_msg, ptr %129, i32 0, i32 6
  %131 = load ptr, ptr %130, align 8
  %132 = getelementptr inbounds nuw %struct.node_record, ptr %8, i32 0, i32 57
  %133 = load i32, ptr %132, align 8
  %134 = load ptr, ptr %7, align 8
  %135 = getelementptr inbounds nuw %struct.dbd_node_state_msg, ptr %134, i32 0, i32 0
  %136 = load i64, ptr %135, align 8
  call void (i32, ptr, ...) @log_var(i32 noundef 6, ptr noundef @.str.116, ptr noundef %124, ptr noundef %128, ptr noundef %131, i32 noundef %133, i64 noundef %136)
  br label %137

137:                                              ; preds = %121, %118
  br label %138

138:                                              ; preds = %137
  br label %139

139:                                              ; preds = %138
  br label %140

140:                                              ; preds = %139
  br label %141

141:                                              ; preds = %140
  %142 = load ptr, ptr %4, align 8
  %143 = getelementptr inbounds nuw %struct.slurmdbd_conn_t, ptr %142, i32 0, i32 3
  %144 = load ptr, ptr %143, align 8
  %145 = load ptr, ptr %7, align 8
  %146 = getelementptr inbounds nuw %struct.dbd_node_state_msg, ptr %145, i32 0, i32 0
  %147 = load i64, ptr %146, align 8
  %148 = load ptr, ptr %7, align 8
  %149 = getelementptr inbounds nuw %struct.dbd_node_state_msg, ptr %148, i32 0, i32 6
  %150 = load ptr, ptr %149, align 8
  %151 = getelementptr inbounds nuw %struct.node_record, ptr %8, i32 0, i32 57
  %152 = load i32, ptr %151, align 8
  %153 = call i32 @clusteracct_storage_g_node_down(ptr noundef %144, ptr noundef %8, i64 noundef %147, ptr noundef %150, i32 noundef %152)
  store i32 %153, ptr %9, align 4
  br label %185

154:                                              ; preds = %78
  br label %155

155:                                              ; preds = %154
  br label %156

156:                                              ; preds = %155
  %157 = call i32 @get_log_level()
  %158 = icmp sge i32 %157, 6
  br i1 %158, label %159, label %163

159:                                              ; preds = %156
  %160 = load ptr, ptr %7, align 8
  %161 = getelementptr inbounds nuw %struct.dbd_node_state_msg, ptr %160, i32 0, i32 2
  %162 = load ptr, ptr %161, align 8
  call void (i32, ptr, ...) @log_var(i32 noundef 6, ptr noundef @.str.117, ptr noundef %162)
  br label %163

163:                                              ; preds = %159, %156
  br label %164

164:                                              ; preds = %163
  br label %165

165:                                              ; preds = %164
  br label %166

166:                                              ; preds = %165
  br label %167

167:                                              ; preds = %166
  %168 = load ptr, ptr %4, align 8
  %169 = getelementptr inbounds nuw %struct.slurmdbd_conn_t, ptr %168, i32 0, i32 3
  %170 = load ptr, ptr %169, align 8
  %171 = call i32 @clusteracct_storage_g_node_update(ptr noundef %170, ptr noundef %8)
  store i32 %171, ptr %9, align 4
  br label %185

172:                                              ; preds = %78
  store ptr @.str.118, ptr %10, align 8
  %173 = load ptr, ptr %4, align 8
  %174 = getelementptr inbounds nuw %struct.slurmdbd_conn_t, ptr %173, i32 0, i32 0
  %175 = load ptr, ptr %174, align 8
  %176 = getelementptr inbounds nuw %struct.persist_conn_t, ptr %175, i32 0, i32 9
  %177 = load i32, ptr %176, align 4
  %178 = load ptr, ptr %10, align 8
  %179 = load ptr, ptr %4, align 8
  %180 = getelementptr inbounds nuw %struct.slurmdbd_conn_t, ptr %179, i32 0, i32 0
  %181 = load ptr, ptr %180, align 8
  %182 = getelementptr inbounds nuw %struct.persist_conn_t, ptr %181, i32 0, i32 1
  %183 = load i32, ptr %182, align 8
  %184 = call i32 (ptr, ...) @error(ptr noundef @.str.86, i32 noundef %177, ptr noundef %178, i32 noundef %183)
  store i32 -1, ptr %9, align 4
  br label %185

185:                                              ; preds = %172, %167, %141, %102
  br label %186

186:                                              ; preds = %185, %16
  %187 = load ptr, ptr %4, align 8
  %188 = getelementptr inbounds nuw %struct.slurmdbd_conn_t, ptr %187, i32 0, i32 0
  %189 = load ptr, ptr %188, align 8
  %190 = load i32, ptr %9, align 4
  %191 = load ptr, ptr %10, align 8
  %192 = call ptr @slurm_persist_make_rc_msg(ptr noundef %189, i32 noundef %190, ptr noundef %191, i16 noundef zeroext 1432)
  %193 = load ptr, ptr %6, align 8
  store ptr %192, ptr %193, align 8
  call void @llvm.lifetime.end.p0(i64 8, ptr %10) #8
  call void @llvm.lifetime.end.p0(i64 4, ptr %9) #8
  call void @llvm.lifetime.end.p0(i64 536, ptr %8) #8
  call void @llvm.lifetime.end.p0(i64 8, ptr %7) #8
  ret i32 0
}