; Function Attrs: nounwind uwtable
define internal fastcc void @_node_state(ptr noundef readonly captures(none) %0, ptr captures(none) %.8.val, ptr noundef writeonly captures(none) initializes((0, 8)) %1) unnamed_addr #0 {
  %3 = alloca %struct.node_record, align 8
  call void @llvm.lifetime.start.p0(i64 536, ptr nonnull %3) #10
  %.val = load ptr, ptr %0, align 8
  %4 = getelementptr i8, ptr %.val, i64 8
  %.val.val = load i32, ptr %4, align 8
  %5 = icmp eq i32 %.val.val, 0
  %6 = load i32, ptr getelementptr inbounds nuw (i8, ptr @slurm_conf, i64 1152), align 8
  %7 = icmp eq i32 %.val.val, %6
  %or.cond.i = select i1 %5, i1 true, i1 %7
  br i1 %or.cond.i, label %12, label %8

8:                                                ; preds = %2
  %9 = getelementptr inbounds nuw i8, ptr %.val, i64 60
  %10 = load i32, ptr %9, align 4
  %11 = tail call i32 (ptr, ...) @error(ptr noundef nonnull @.str.86, i32 noundef %10, ptr noundef nonnull @.str.114, i32 noundef %.val.val) #10
  br label %87

12:                                               ; preds = %2
  call void @llvm.memset.p0.i64(ptr noundef nonnull align 8 dereferenceable(536) %3, i8 0, i64 536, i1 false)
  %13 = getelementptr inbounds nuw i8, ptr %.8.val, i64 8
  %14 = load ptr, ptr %13, align 8
  %15 = getelementptr inbounds nuw i8, ptr %3, i64 128
  store ptr %14, ptr %15, align 8
  %16 = getelementptr inbounds nuw i8, ptr %.8.val, i64 24
  %17 = load ptr, ptr %16, align 8
  %18 = getelementptr inbounds nuw i8, ptr %3, i64 216
  store ptr %17, ptr %18, align 8
  %19 = getelementptr inbounds nuw i8, ptr %.8.val, i64 32
  %20 = load ptr, ptr %19, align 8
  %21 = getelementptr inbounds nuw i8, ptr %3, i64 224
  store ptr %20, ptr %21, align 8
  %22 = getelementptr inbounds nuw i8, ptr %.8.val, i64 16
  %23 = load ptr, ptr %22, align 8
  %24 = getelementptr inbounds nuw i8, ptr %3, i64 272
  store ptr %23, ptr %24, align 8
  %25 = getelementptr inbounds nuw i8, ptr %.8.val, i64 64
  %26 = load ptr, ptr %25, align 8
  %27 = getelementptr inbounds nuw i8, ptr %3, i64 496
  store ptr %26, ptr %27, align 8
  %28 = getelementptr inbounds nuw i8, ptr %.8.val, i64 60
  %29 = load i32, ptr %28, align 4
  %30 = getelementptr inbounds nuw i8, ptr %3, i64 320
  store i32 %29, ptr %30, align 8
  %31 = getelementptr inbounds nuw i8, ptr %.8.val, i64 48
  %32 = load ptr, ptr %31, align 8
  %33 = getelementptr inbounds nuw i8, ptr %3, i64 384
  store ptr %32, ptr %33, align 8
  %34 = load i64, ptr %.8.val, align 8
  %35 = getelementptr inbounds nuw i8, ptr %3, i64 392
  store i64 %34, ptr %35, align 8
  %36 = getelementptr inbounds nuw i8, ptr %.8.val, i64 56
  %37 = load i32, ptr %36, align 8
  %38 = getelementptr inbounds nuw i8, ptr %3, i64 400
  store i32 %37, ptr %38, align 8
  %.not = icmp eq ptr %26, null
  %39 = getelementptr inbounds nuw i8, ptr %.8.val, i64 40
  %40 = load i16, ptr %39, align 8
  br i1 %.not, label %41, label %42

41:                                               ; preds = %12
  %.not39 = icmp eq i16 %40, 3
  br i1 %.not39, label %.thread1, label %.thread

.thread:                                          ; preds = %41
  store i16 2, ptr %39, align 8
  br label %43

42:                                               ; preds = %12
  switch i16 %40, label %80 [
    i16 2, label %43
    i16 1, label %57
    i16 3, label %.thread1
  ]

43:                                               ; preds = %.thread, %42
  %44 = tail call i32 @get_log_level() #10
  %45 = icmp sgt i32 %44, 5
  br i1 %45, label %46, label %50

46:                                               ; preds = %43
  %47 = load ptr, ptr %22, align 8
  %48 = load ptr, ptr %31, align 8
  %49 = load i64, ptr %.8.val, align 8
  tail call void (i32, ptr, ...) @log_var(i32 noundef 6, ptr noundef nonnull @.str.115, ptr noundef %47, ptr noundef %48, i64 noundef %49) #10
  br label %50

50:                                               ; preds = %46, %43
  %51 = load ptr, ptr %31, align 8
  %52 = tail call ptr @xstrdup(ptr noundef %51) #10
  store ptr %52, ptr %33, align 8
  %53 = getelementptr inbounds nuw i8, ptr %0, i64 56
  %54 = load ptr, ptr %53, align 8
  %55 = load i64, ptr %.8.val, align 8
  %56 = call i32 @clusteracct_storage_g_node_up(ptr noundef %54, ptr noundef nonnull %3, i64 noundef %55) #10
  call void @slurm_xfree(ptr noundef nonnull %33) #10
  br label %87

57:                                               ; preds = %42
  %58 = tail call i32 @get_log_level() #10
  %59 = icmp sgt i32 %58, 5
  br i1 %59, label %60, label %66

60:                                               ; preds = %57
  %61 = load ptr, ptr %22, align 8
  %62 = load i32, ptr %28, align 4
  %63 = tail call ptr @node_state_string(i32 noundef %62) #10
  %64 = load ptr, ptr %31, align 8
  %65 = load i64, ptr %.8.val, align 8
  tail call void (i32, ptr, ...) @log_var(i32 noundef 6, ptr noundef nonnull @.str.116, ptr noundef %61, ptr noundef %63, ptr noundef %64, i32 noundef %37, i64 noundef %65) #10
  br label %66

66:                                               ; preds = %60, %57
  %67 = getelementptr inbounds nuw i8, ptr %0, i64 56
  %68 = load ptr, ptr %67, align 8
  %69 = load i64, ptr %.8.val, align 8
  %70 = load ptr, ptr %31, align 8
  %71 = call i32 @clusteracct_storage_g_node_down(ptr noundef %68, ptr noundef nonnull %3, i64 noundef %69, ptr noundef %70, i32 noundef %37) #10
  br label %87

.thread1:                                         ; preds = %41, %42
  %72 = tail call i32 @get_log_level() #10
  %73 = icmp sgt i32 %72, 5
  br i1 %73, label %74, label %76

74:                                               ; preds = %.thread1
  %75 = load ptr, ptr %22, align 8
  tail call void (i32, ptr, ...) @log_var(i32 noundef 6, ptr noundef nonnull @.str.117, ptr noundef %75) #10
  br label %76

76:                                               ; preds = %74, %.thread1
  %77 = getelementptr inbounds nuw i8, ptr %0, i64 56
  %78 = load ptr, ptr %77, align 8
  %79 = call i32 @clusteracct_storage_g_node_update(ptr noundef %78, ptr noundef nonnull %3) #10
  br label %87

80:                                               ; preds = %42
  %81 = load ptr, ptr %0, align 8
  %82 = getelementptr inbounds nuw i8, ptr %81, i64 60
  %83 = load i32, ptr %82, align 4
  %84 = getelementptr inbounds nuw i8, ptr %81, i64 8
  %85 = load i32, ptr %84, align 8
  %86 = tail call i32 (ptr, ...) @error(ptr noundef nonnull @.str.86, i32 noundef %83, ptr noundef nonnull @.str.118, i32 noundef %85) #10
  br label %87

87:                                               ; preds = %50, %66, %76, %80, %8
  %.038 = phi i32 [ -1, %80 ], [ %79, %76 ], [ %71, %66 ], [ %56, %50 ], [ 2002, %8 ]
  %.0 = phi ptr [ @.str.118, %80 ], [ null, %76 ], [ null, %66 ], [ null, %50 ], [ @.str.114, %8 ]
  %88 = load ptr, ptr %0, align 8
  %89 = call ptr @slurm_persist_make_rc_msg(ptr noundef %88, i32 noundef %.038, ptr noundef %.0, i16 noundef zeroext 1432) #10
  store ptr %89, ptr %1, align 8
  call void @llvm.lifetime.end.p0(i64 536, ptr nonnull %3) #10
  ret void
}